(lp0
Vhttps://www.bigoven.com/recipe/slow-cooker-lasagna/1305668
p1
aVhttps://www.bigoven.com/recipe/slow-cooker-carnitas-pulled-pork/200555
p2
aVhttps://www.bigoven.com/recipe/slow-cooker-chili/255944
p3
aVhttps://www.bigoven.com/recipe/creamy-slow-cooker-tarragon-chicken/390944
p4
aVhttps://www.bigoven.com/recipe/slow-cooker-beef-tacos/190295
p5
aVhttps://www.bigoven.com/recipe/slow-cooker-barbacoa-tacos/736207
p6
aVhttps://www.bigoven.com/recipe/kalua-pork-slow-cooker/838907
p7
aVhttps://www.bigoven.com/recipe/slow-cooker-beef-and-barley/235680
p8
aVhttps://www.bigoven.com/recipe/slow-cooker-cilantro-lime-chicken/337444
p9
aVhttps://www.bigoven.com/recipe/slow-cooker-pork-roast/170585
p10
aVhttps://www.bigoven.com/recipe/slow-cooker-lasagna/213735
p11
aVhttps://www.bigoven.com/recipe/slow-cooker-savory-chicken/773505
p12
aVhttps://www.bigoven.com/recipe/slow-cooker-cheesy-tortellini/1290783
p13
aVhttps://www.bigoven.com/recipe/slow-cooker-baked-ziti/342708
p14
aVhttps://www.bigoven.com/recipe/slow-cooker-pork-chops/757466
p15
aVhttps://www.bigoven.com/recipe/slow-cooker-macaroni-and-cheese/902160
p16
aVhttps://www.bigoven.com/recipe/lasagna-soup-slow-cooker/810429
p17
aVhttps://www.bigoven.com/recipe/slow-cooker-chili-ii/640285
p18
aVhttps://www.bigoven.com/recipe/slow-cooker-pot-roast/969816
p19
aVhttps://www.bigoven.com/recipe/slow-cooker-chicken-burritos/186028
p20
a.